; Function Attrs: mustprogress nofree norecurse nosync nounwind willreturn memory(argmem: read) uwtable
define i32 @png_get_valid(ptr noalias noundef readonly %0, ptr noalias noundef readonly %1, i32 noundef %2) local_unnamed_addr #0 {
  %4 = icmp ne ptr %0, null
  %5 = icmp ne ptr %1, null
  %or.cond = and i1 %4, %5
  br i1 %or.cond, label %6, label %16

6:                                                ; preds = %3
  %7 = icmp eq i32 %2, 16
  br i1 %7, label %8, label %12

8:                                                ; preds = %6
  %9 = getelementptr inbounds i8, ptr %0, i64 608
  %10 = load i16, ptr %9, align 8
  %11 = icmp eq i16 %10, 0
  br i1 %11, label %16, label %12

12:                                               ; preds = %8, %6
  %13 = getelementptr inbounds i8, ptr %1, i64 8
  %14 = load i32, ptr %13, align 8
  %15 = and i32 %14, %2
  br label %16

16:                                               ; preds = %3, %8, %12
  %.0 = phi i32 [ %15, %12 ], [ 0, %8 ], [ 0, %3 ]
  ret i32 %.0
}